target datalayout = "e-m:e-p270:32:32-p271:32:32-p272:64:64-i64:64-i128:128-f80:128-n8:16:32:64-S128"
target triple = "x86_64-pc-linux-gnu"

%struct._php_stream_filter_ops = type { ptr, ptr, ptr }
%struct._php_chunked_filter_data = type { i64, i32, i32 }

@chunked_filter_ops = internal constant %struct._php_stream_filter_ops { ptr @php_chunked_filter, ptr @php_chunked_dtor, ptr @.str.20 }, align 8
@.str.20 = private unnamed_addr constant [8 x i8] c"dechunk\00", align 1

; Function Attrs: nounwind uwtable
define internal ptr @chunked_filter_create(ptr noundef %0, ptr noundef %1, i8 noundef zeroext %2) #0 {
  %4 = alloca ptr, align 8
  %5 = alloca ptr, align 8
  %6 = alloca ptr, align 8
  %7 = alloca i8, align 1
  %8 = alloca ptr, align 8
  %9 = alloca ptr, align 8
  store ptr %0, ptr %5, align 8
  store ptr %1, ptr %6, align 8
  store i8 %2, ptr %7, align 1
  store ptr null, ptr %8, align 8
  %10 = load ptr, ptr %5, align 8
  %11 = call i32 @strcasecmp(ptr noundef %10, ptr noundef @.str.20) #14
  %12 = icmp ne i32 %11, 0
  br i1 %12, label %13, label %14

13:                                               ; preds = %3
  store ptr null, ptr %4, align 8
  br label %36

14:                                               ; preds = %3
  %15 = load i8, ptr %7, align 1
  %16 = zext i8 %15 to i32
  %17 = icmp ne i32 %16, 0
  br i1 %17, label %18, label %20

18:                                               ; preds = %14
  %19 = call noalias ptr @__zend_calloc(i64 noundef 1, i64 noundef 16) #16
  br label %22

20:                                               ; preds = %14
  %21 = call noalias ptr @_ecalloc(i64 noundef 1, i64 noundef 16) #16
  br label %22

22:                                               ; preds = %20, %18
  %23 = phi ptr [ %19, %18 ], [ %21, %20 ]
  store ptr %23, ptr %9, align 8
  %24 = load ptr, ptr %9, align 8
  %25 = getelementptr inbounds %struct._php_chunked_filter_data, ptr %24, i32 0, i32 1
  store i32 0, ptr %25, align 8
  %26 = load ptr, ptr %9, align 8
  %27 = getelementptr inbounds %struct._php_chunked_filter_data, ptr %26, i32 0, i32 0
  store i64 0, ptr %27, align 8
  %28 = load i8, ptr %7, align 1
  %29 = zext i8 %28 to i32
  %30 = load ptr, ptr %9, align 8
  %31 = getelementptr inbounds %struct._php_chunked_filter_data, ptr %30, i32 0, i32 2
  store i32 %29, ptr %31, align 4
  store ptr @chunked_filter_ops, ptr %8, align 8
  %32 = load ptr, ptr %8, align 8
  %33 = load ptr, ptr %9, align 8
  %34 = load i8, ptr %7, align 1
  %35 = call ptr @_php_stream_filter_alloc(ptr noundef %32, ptr noundef %33, i8 noundef zeroext %34)
  store ptr %35, ptr %4, align 8
  br label %36

36:                                               ; preds = %22, %13
  %37 = load ptr, ptr %4, align 8
  ret ptr %37
}