; Function Attrs: nounwind uwtable
define internal ptr @chunked_filter_create(ptr nocapture noundef readonly %0, ptr nocapture readnone %1, i8 noundef zeroext %2) #0 {
  %4 = tail call i32 @strcasecmp(ptr noundef %0, ptr noundef nonnull @.str.20) #21
  %.not = icmp eq i32 %4, 0
  br i1 %.not, label %5, label %16

5:                                                ; preds = %3
  %6 = zext i8 %2 to i32
  %.not9 = icmp eq i8 %2, 0
  br i1 %.not9, label %9, label %7

7:                                                ; preds = %5
  %8 = tail call noalias dereferenceable_or_null(16) ptr @__zend_calloc(i64 noundef 1, i64 noundef 16) #23
  br label %11

9:                                                ; preds = %5
  %10 = tail call noalias dereferenceable_or_null(16) ptr @_ecalloc(i64 noundef 1, i64 noundef 16) #23
  br label %11

11:                                               ; preds = %9, %7
  %12 = phi ptr [ %8, %7 ], [ %10, %9 ]
  %13 = getelementptr inbounds i8, ptr %12, i64 8
  store i32 0, ptr %13, align 8
  store i64 0, ptr %12, align 8
  %14 = getelementptr inbounds i8, ptr %12, i64 12
  store i32 %6, ptr %14, align 4
  %15 = tail call ptr @_php_stream_filter_alloc(ptr noundef nonnull @chunked_filter_ops, ptr noundef nonnull %12, i8 noundef zeroext %2) #18
  br label %16

16:                                               ; preds = %3, %11
  %.0 = phi ptr [ %15, %11 ], [ null, %3 ]
  ret ptr %.0
}